; Function Attrs: nounwind uwtable
define ptr @l_List_forIn_x27_loop___at___private_Lean_Elab_MutualInductive_0__Lean_Elab_Command_collectLevelParamsInInductive___spec__2(ptr readnone captures(none) %0, ptr readnone captures(none) %1, ptr readnone captures(none) %2, ptr noundef %3, ptr noundef %4, ptr readnone captures(none) %5) local_unnamed_addr #1 {
  br label %lean_dec.exit

lean_dec.exit:                                    ; preds = %lean_dec.exit.backedge, %6
  %.023 = phi ptr [ %4, %6 ], [ %.023.be, %lean_dec.exit.backedge ]
  %.0 = phi ptr [ %3, %6 ], [ %29, %lean_dec.exit.backedge ]
  %7 = ptrtoint ptr %.0 to i64
  %8 = and i64 %7, 1
  %.not.i34 = icmp eq i64 %8, 0
  br i1 %.not.i34, label %12, label %9

9:                                                ; preds = %lean_dec.exit
  %10 = lshr i64 %7, 1
  %11 = trunc i64 %10 to i32
  br label %lean_obj_tag.exit

12:                                               ; preds = %lean_dec.exit
  %13 = getelementptr i8, ptr %.0, i64 4
  %.val.i = load i32, ptr %13, align 4
  %14 = lshr i32 %.val.i, 24
  br label %lean_obj_tag.exit

lean_obj_tag.exit:                                ; preds = %9, %12
  %.0.i = phi i32 [ %11, %9 ], [ %14, %12 ]
  %15 = icmp eq i32 %.0.i, 0
  br i1 %15, label %16, label %17

16:                                               ; preds = %lean_obj_tag.exit
  ret ptr %.023

17:                                               ; preds = %lean_obj_tag.exit
  %18 = getelementptr inbounds nuw i8, ptr %.0, i64 8
  %19 = load ptr, ptr %18, align 8, !tbaa !12
  %20 = ptrtoint ptr %19 to i64
  %21 = and i64 %20, 1
  %.not = icmp eq i64 %21, 0
  br i1 %.not, label %22, label %lean_inc.exit29

22:                                               ; preds = %17
  %.val.i35 = load i32, ptr %19, align 4, !tbaa !8
  %23 = icmp sgt i32 %.val.i35, 0
  br i1 %23, label %24, label %26, !prof !11

24:                                               ; preds = %22
  %25 = add nuw i32 %.val.i35, 1
  store i32 %25, ptr %19, align 4, !tbaa !8
  br label %lean_inc.exit29

26:                                               ; preds = %22
  %.not.i36 = icmp eq i32 %.val.i35, 0
  br i1 %.not.i36, label %lean_inc.exit29, label %27

27:                                               ; preds = %26
  tail call void @lean_inc_ref_cold(ptr noundef nonnull %19) #5
  br label %lean_inc.exit29

lean_inc.exit29:                                  ; preds = %27, %26, %24, %17
  %28 = getelementptr inbounds nuw i8, ptr %.0, i64 16
  %29 = load ptr, ptr %28, align 8, !tbaa !12
  %30 = ptrtoint ptr %29 to i64
  %31 = and i64 %30, 1
  %.not49 = icmp eq i64 %31, 0
  br i1 %.not49, label %32, label %lean_inc.exit28

32:                                               ; preds = %lean_inc.exit29
  %.val.i37 = load i32, ptr %29, align 4, !tbaa !8
  %33 = icmp sgt i32 %.val.i37, 0
  br i1 %33, label %34, label %36, !prof !11

34:                                               ; preds = %32
  %35 = add nuw i32 %.val.i37, 1
  store i32 %35, ptr %29, align 4, !tbaa !8
  br label %lean_inc.exit28

36:                                               ; preds = %32
  %.not.i38 = icmp eq i32 %.val.i37, 0
  br i1 %.not.i38, label %lean_inc.exit28, label %37

37:                                               ; preds = %36
  tail call void @lean_inc_ref_cold(ptr noundef nonnull %29) #5
  br label %lean_inc.exit28

lean_inc.exit28:                                  ; preds = %37, %36, %34, %lean_inc.exit29
  br i1 %.not.i34, label %38, label %lean_dec.exit25

38:                                               ; preds = %lean_inc.exit28
  %39 = load i32, ptr %.0, align 4, !tbaa !8
  %40 = icmp sgt i32 %39, 1
  br i1 %40, label %41, label %43, !prof !11

41:                                               ; preds = %38
  %42 = add nsw i32 %39, -1
  store i32 %42, ptr %.0, align 4, !tbaa !8
  br label %lean_dec.exit25

43:                                               ; preds = %38
  %.not.i = icmp eq i32 %39, 0
  br i1 %.not.i, label %lean_dec.exit25, label %44

44:                                               ; preds = %43
  tail call void @lean_dec_ref_cold(ptr noundef nonnull %.0) #5
  br label %lean_dec.exit25

lean_dec.exit25:                                  ; preds = %44, %43, %41, %lean_inc.exit28
  %45 = getelementptr inbounds nuw i8, ptr %19, i64 16
  %46 = load ptr, ptr %45, align 8, !tbaa !12
  %47 = ptrtoint ptr %46 to i64
  %48 = and i64 %47, 1
  %.not51 = icmp eq i64 %48, 0
  br i1 %.not51, label %49, label %lean_inc.exit27

49:                                               ; preds = %lean_dec.exit25
  %.val.i40 = load i32, ptr %46, align 4, !tbaa !8
  %50 = icmp sgt i32 %.val.i40, 0
  br i1 %50, label %51, label %53, !prof !11

51:                                               ; preds = %49
  %52 = add nuw i32 %.val.i40, 1
  store i32 %52, ptr %46, align 4, !tbaa !8
  br label %lean_inc.exit27

53:                                               ; preds = %49
  %.not.i41 = icmp eq i32 %.val.i40, 0
  br i1 %.not.i41, label %lean_inc.exit27, label %54

54:                                               ; preds = %53
  tail call void @lean_inc_ref_cold(ptr noundef nonnull %46) #5
  br label %lean_inc.exit27

lean_inc.exit27:                                  ; preds = %54, %53, %51, %lean_dec.exit25
  %55 = tail call ptr @l_Lean_CollectLevelParams_main(ptr noundef %46, ptr noundef %.023) #5
  %56 = getelementptr inbounds nuw i8, ptr %19, i64 24
  %57 = load ptr, ptr %56, align 8, !tbaa !12
  %58 = ptrtoint ptr %57 to i64
  %59 = and i64 %58, 1
  %.not52 = icmp eq i64 %59, 0
  br i1 %.not52, label %60, label %lean_inc.exit26

60:                                               ; preds = %lean_inc.exit27
  %.val.i43 = load i32, ptr %57, align 4, !tbaa !8
  %61 = icmp sgt i32 %.val.i43, 0
  br i1 %61, label %62, label %64, !prof !11

62:                                               ; preds = %60
  %63 = add nuw i32 %.val.i43, 1
  store i32 %63, ptr %57, align 4, !tbaa !8
  br label %lean_inc.exit26

64:                                               ; preds = %60
  %.not.i44 = icmp eq i32 %.val.i43, 0
  br i1 %.not.i44, label %lean_inc.exit26, label %65

65:                                               ; preds = %64
  tail call void @lean_inc_ref_cold(ptr noundef nonnull %57) #5
  br label %lean_inc.exit26

lean_inc.exit26:                                  ; preds = %65, %64, %62, %lean_inc.exit27
  br i1 %.not, label %66, label %lean_dec.exit24

66:                                               ; preds = %lean_inc.exit26
  %67 = load i32, ptr %19, align 4, !tbaa !8
  %68 = icmp sgt i32 %67, 1
  br i1 %68, label %69, label %71, !prof !11

69:                                               ; preds = %66
  %70 = add nsw i32 %67, -1
  store i32 %70, ptr %19, align 4, !tbaa !8
  br label %lean_dec.exit24

71:                                               ; preds = %66
  %.not.i30 = icmp eq i32 %67, 0
  br i1 %.not.i30, label %lean_dec.exit24, label %72

72:                                               ; preds = %71
  tail call void @lean_dec_ref_cold(ptr noundef nonnull %19) #5
  br label %lean_dec.exit24

lean_dec.exit24:                                  ; preds = %72, %71, %69, %lean_inc.exit26
  br i1 %.not52, label %73, label %lean_inc.exit

73:                                               ; preds = %lean_dec.exit24
  %.val.i46 = load i32, ptr %57, align 4, !tbaa !8
  %74 = icmp sgt i32 %.val.i46, 0
  br i1 %74, label %75, label %77, !prof !11

75:                                               ; preds = %73
  %76 = add nuw i32 %.val.i46, 1
  store i32 %76, ptr %57, align 4, !tbaa !8
  br label %80

77:                                               ; preds = %73
  %.not.i47 = icmp eq i32 %.val.i46, 0
  br i1 %.not.i47, label %80, label %78

78:                                               ; preds = %77
  tail call void @lean_inc_ref_cold(ptr noundef nonnull %57) #5
  br label %80

lean_inc.exit:                                    ; preds = %lean_dec.exit24
  %79 = tail call ptr @l_List_forIn_x27_loop___at___private_Lean_Elab_MutualInductive_0__Lean_Elab_Command_collectLevelParamsInInductive___spec__1(ptr nonnull poison, ptr poison, ptr poison, ptr noundef %57, ptr noundef %55, ptr nonnull poison)
  br label %lean_dec.exit.backedge

80:                                               ; preds = %78, %77, %75
  %81 = tail call ptr @l_List_forIn_x27_loop___at___private_Lean_Elab_MutualInductive_0__Lean_Elab_Command_collectLevelParamsInInductive___spec__1(ptr nonnull poison, ptr nonnull poison, ptr nonnull poison, ptr noundef nonnull %57, ptr noundef %55, ptr nonnull poison)
  %82 = load i32, ptr %57, align 4, !tbaa !8
  %83 = icmp sgt i32 %82, 1
  br i1 %83, label %84, label %86, !prof !11

84:                                               ; preds = %80
  %85 = add nsw i32 %82, -1
  store i32 %85, ptr %57, align 4, !tbaa !8
  br label %lean_dec.exit.backedge

86:                                               ; preds = %80
  %.not.i32 = icmp eq i32 %82, 0
  br i1 %.not.i32, label %lean_dec.exit.backedge, label %87

87:                                               ; preds = %86
  tail call void @lean_dec_ref_cold(ptr noundef nonnull %57) #5
  br label %lean_dec.exit.backedge

lean_dec.exit.backedge:                           ; preds = %87, %86, %84, %lean_inc.exit
  %.023.be = phi ptr [ %79, %lean_inc.exit ], [ %81, %84 ], [ %81, %86 ], [ %81, %87 ]
  br label %lean_dec.exit
}